; ModuleID = '51/780.c'
source_filename = "51/780.c"
target datalayout = "e-m:e-p270:32:32-p271:32:32-p272:64:64-i64:64-f80:128-n8:16:32:64-S128"
target triple = "x86_64-pc-linux-gnu"

@.str = private unnamed_addr constant [3 x i8] c"%d\00", align 1
@.str.1 = private unnamed_addr constant [3 x i8] c"%s\00", align 1
@.str.2 = private unnamed_addr constant [3 x i8] c"NO\00", align 1
@.str.3 = private unnamed_addr constant [4 x i8] c"%d\0A\00", align 1
@.str.4 = private unnamed_addr constant [4 x i8] c"%s\0A\00", align 1

; Function Attrs: noinline nounwind uwtable
define dso_local i32 @main() #0 {
  %1 = alloca i32, align 4
  %2 = alloca i32, align 4
  %3 = alloca [500 x i8], align 16
  %4 = alloca [500 x [5 x i8]], align 16
  %5 = alloca i32, align 4
  %6 = alloca i32, align 4
  %7 = alloca i32, align 4
  %8 = alloca [500 x i32], align 16
  %9 = alloca i32, align 4
  %10 = alloca i32, align 4
  %11 = alloca i32, align 4
  %12 = alloca i32, align 4
  %13 = alloca i32, align 4
  store i32 0, i32* %1, align 4
  %14 = call i32 (i8*, ...) @__isoc99_scanf(i8* getelementptr inbounds ([3 x i8], [3 x i8]* @.str, i64 0, i64 0), i32* %2)
  %15 = bitcast [500 x [5 x i8]]* %4 to i8*
  call void @llvm.memset.p0i8.i64(i8* align 16 %15, i8 0, i64 2500, i1 false)
  %16 = getelementptr inbounds [500 x i8], [500 x i8]* %3, i64 0, i64 0
  %17 = call i32 (i8*, ...) @__isoc99_scanf(i8* getelementptr inbounds ([3 x i8], [3 x i8]* @.str.1, i64 0, i64 0), i8* %16)
  store i32 0, i32* %5, align 4
  br label %18

18:                                               ; preds = %54, %0
  %19 = load i32, i32* %5, align 4
  %20 = load i32, i32* %2, align 4
  %21 = add nsw i32 %19, %20
  %22 = sub nsw i32 %21, 1
  %23 = sext i32 %22 to i64
  %24 = getelementptr inbounds [500 x i8], [500 x i8]* %3, i64 0, i64 %23
  %25 = load i8, i8* %24, align 1
  %26 = sext i8 %25 to i32
  %27 = icmp ne i32 %26, 0
  br i1 %27, label %28, label %57

28:                                               ; preds = %18
  %29 = load i32, i32* %5, align 4
  store i32 %29, i32* %6, align 4
  br label %30

30:                                               ; preds = %50, %28
  %31 = load i32, i32* %6, align 4
  %32 = load i32, i32* %2, align 4
  %33 = sub nsw i32 %32, 1
  %34 = load i32, i32* %5, align 4
  %35 = add nsw i32 %33, %34
  %36 = icmp sle i32 %31, %35
  br i1 %36, label %37, label %53

37:                                               ; preds = %30
  %38 = load i32, i32* %6, align 4
  %39 = sext i32 %38 to i64
  %40 = getelementptr inbounds [500 x i8], [500 x i8]* %3, i64 0, i64 %39
  %41 = load i8, i8* %40, align 1
  %42 = load i32, i32* %5, align 4
  %43 = sext i32 %42 to i64
  %44 = getelementptr inbounds [500 x [5 x i8]], [500 x [5 x i8]]* %4, i64 0, i64 %43
  %45 = load i32, i32* %6, align 4
  %46 = load i32, i32* %5, align 4
  %47 = sub nsw i32 %45, %46
  %48 = sext i32 %47 to i64
  %49 = getelementptr inbounds [5 x i8], [5 x i8]* %44, i64 0, i64 %48
  store i8 %41, i8* %49, align 1
  br label %50

50:                                               ; preds = %37
  %51 = load i32, i32* %6, align 4
  %52 = add nsw i32 %51, 1
  store i32 %52, i32* %6, align 4
  br label %30

53:                                               ; preds = %30
  br label %54

54:                                               ; preds = %53
  %55 = load i32, i32* %5, align 4
  %56 = add nsw i32 %55, 1
  store i32 %56, i32* %5, align 4
  br label %18

57:                                               ; preds = %18
  %58 = load i32, i32* %5, align 4
  store i32 %58, i32* %7, align 4
  %59 = bitcast [500 x i32]* %8 to i8*
  call void @llvm.memset.p0i8.i64(i8* align 16 %59, i8 0, i64 2000, i1 false)
  store i32 0, i32* %9, align 4
  br label %60

60:                                               ; preds = %94, %57
  %61 = load i32, i32* %9, align 4
  %62 = load i32, i32* %7, align 4
  %63 = sub nsw i32 %62, 1
  %64 = icmp sle i32 %61, %63
  br i1 %64, label %65, label %97

65:                                               ; preds = %60
  %66 = load i32, i32* %9, align 4
  store i32 %66, i32* %10, align 4
  br label %67

67:                                               ; preds = %90, %65
  %68 = load i32, i32* %10, align 4
  %69 = load i32, i32* %7, align 4
  %70 = sub nsw i32 %69, 1
  %71 = icmp sle i32 %68, %70
  br i1 %71, label %72, label %93

72:                                               ; preds = %67
  %73 = load i32, i32* %9, align 4
  %74 = sext i32 %73 to i64
  %75 = getelementptr inbounds [500 x [5 x i8]], [500 x [5 x i8]]* %4, i64 0, i64 %74
  %76 = getelementptr inbounds [5 x i8], [5 x i8]* %75, i64 0, i64 0
  %77 = load i32, i32* %10, align 4
  %78 = sext i32 %77 to i64
  %79 = getelementptr inbounds [500 x [5 x i8]], [500 x [5 x i8]]* %4, i64 0, i64 %78
  %80 = getelementptr inbounds [5 x i8], [5 x i8]* %79, i64 0, i64 0
  %81 = call i32 @strcmp(i8* %76, i8* %80) #4
  %82 = icmp eq i32 %81, 0
  br i1 %82, label %83, label %89

83:                                               ; preds = %72
  %84 = load i32, i32* %9, align 4
  %85 = sext i32 %84 to i64
  %86 = getelementptr inbounds [500 x i32], [500 x i32]* %8, i64 0, i64 %85
  %87 = load i32, i32* %86, align 4
  %88 = add nsw i32 %87, 1
  store i32 %88, i32* %86, align 4
  br label %89

89:                                               ; preds = %83, %72
  br label %90

90:                                               ; preds = %89
  %91 = load i32, i32* %10, align 4
  %92 = add nsw i32 %91, 1
  store i32 %92, i32* %10, align 4
  br label %67

93:                                               ; preds = %67
  br label %94

94:                                               ; preds = %93
  %95 = load i32, i32* %9, align 4
  %96 = add nsw i32 %95, 1
  store i32 %96, i32* %9, align 4
  br label %60

97:                                               ; preds = %60
  %98 = getelementptr inbounds [500 x i32], [500 x i32]* %8, i64 0, i64 0
  %99 = load i32, i32* %98, align 16
  store i32 %99, i32* %11, align 4
  store i32 0, i32* %12, align 4
  br label %100

100:                                              ; preds = %119, %97
  %101 = load i32, i32* %12, align 4
  %102 = sext i32 %101 to i64
  %103 = getelementptr inbounds [500 x i32], [500 x i32]* %8, i64 0, i64 %102
  %104 = load i32, i32* %103, align 4
  %105 = icmp ne i32 %104, 0
  br i1 %105, label %106, label %122

106:                                              ; preds = %100
  %107 = load i32, i32* %12, align 4
  %108 = sext i32 %107 to i64
  %109 = getelementptr inbounds [500 x i32], [500 x i32]* %8, i64 0, i64 %108
  %110 = load i32, i32* %109, align 4
  %111 = load i32, i32* %11, align 4
  %112 = icmp sgt i32 %110, %111
  br i1 %112, label %113, label %118

113:                                              ; preds = %106
  %114 = load i32, i32* %12, align 4
  %115 = sext i32 %114 to i64
  %116 = getelementptr inbounds [500 x i32], [500 x i32]* %8, i64 0, i64 %115
  %117 = load i32, i32* %116, align 4
  store i32 %117, i32* %11, align 4
  br label %118

118:                                              ; preds = %113, %106
  br label %119

119:                                              ; preds = %118
  %120 = load i32, i32* %12, align 4
  %121 = add nsw i32 %120, 1
  store i32 %121, i32* %12, align 4
  br label %100

122:                                              ; preds = %100
  %123 = load i32, i32* %11, align 4
  %124 = icmp eq i32 %123, 1
  br i1 %124, label %125, label %127

125:                                              ; preds = %122
  %126 = call i32 (i8*, ...) @printf(i8* getelementptr inbounds ([3 x i8], [3 x i8]* @.str.2, i64 0, i64 0))
  br label %154

127:                                              ; preds = %122
  %128 = load i32, i32* %11, align 4
  %129 = call i32 (i8*, ...) @printf(i8* getelementptr inbounds ([4 x i8], [4 x i8]* @.str.3, i64 0, i64 0), i32 %128)
  store i32 0, i32* %13, align 4
  br label %130

130:                                              ; preds = %150, %127
  %131 = load i32, i32* %13, align 4
  %132 = sext i32 %131 to i64
  %133 = getelementptr inbounds [500 x i32], [500 x i32]* %8, i64 0, i64 %132
  %134 = load i32, i32* %133, align 4
  %135 = icmp ne i32 %134, 0
  br i1 %135, label %136, label %153

136:                                              ; preds = %130
  %137 = load i32, i32* %13, align 4
  %138 = sext i32 %137 to i64
  %139 = getelementptr inbounds [500 x i32], [500 x i32]* %8, i64 0, i64 %138
  %140 = load i32, i32* %139, align 4
  %141 = load i32, i32* %11, align 4
  %142 = icmp eq i32 %140, %141
  br i1 %142, label %143, label %149

143:                                              ; preds = %136
  %144 = load i32, i32* %13, align 4
  %145 = sext i32 %144 to i64
  %146 = getelementptr inbounds [500 x [5 x i8]], [500 x [5 x i8]]* %4, i64 0, i64 %145
  %147 = getelementptr inbounds [5 x i8], [5 x i8]* %146, i64 0, i64 0
  %148 = call i32 (i8*, ...) @printf(i8* getelementptr inbounds ([4 x i8], [4 x i8]* @.str.4, i64 0, i64 0), i8* %147)
  br label %149

149:                                              ; preds = %143, %136
  br label %150

150:                                              ; preds = %149
  %151 = load i32, i32* %13, align 4
  %152 = add nsw i32 %151, 1
  store i32 %152, i32* %13, align 4
  br label %130

153:                                              ; preds = %130
  br label %154

154:                                              ; preds = %153, %125
  ret i32 0
}

declare dso_local i32 @__isoc99_scanf(i8*, ...) #1

; Function Attrs: argmemonly nounwind willreturn
declare void @llvm.memset.p0i8.i64(i8* nocapture writeonly, i8, i64, i1 immarg) #2

; Function Attrs: nounwind readonly
declare dso_local i32 @strcmp(i8*, i8*) #3

declare dso_local i32 @printf(i8*, ...) #1


!llvm.module.flags = !{!0}
!llvm.ident = !{!1}

!0 = !{i32 1, !"wchar_size", i32 4}
!1 = !{!"clang version 10.0.0-4ubuntu1 "}
